; Function Attrs: nounwind uwtable
define internal fastcc range(i32 -1, 1) i32 @obj2ast_int(ptr noundef %0, ptr noundef nonnull writeonly captures(none) %1) unnamed_addr #0 {
  %3 = getelementptr i8, ptr %0, i64 8
  %.val = load ptr, ptr %3, align 8, !tbaa !133
  %4 = getelementptr i8, ptr %.val, i64 168
  %.val7 = load i64, ptr %4, align 8, !tbaa !134
  %5 = and i64 %.val7, 16777216
  %.not = icmp eq i64 %5, 0
  br i1 %.not, label %6, label %9

6:                                                ; preds = %2
  %7 = load ptr, ptr @PyExc_ValueError, align 8, !tbaa !4
  %8 = tail call ptr (ptr, ptr, ...) @PyErr_Format(ptr noundef %7, ptr noundef nonnull @.str.555, ptr noundef nonnull %0) #8
  br label %15

9:                                                ; preds = %2
  %10 = tail call i32 @PyLong_AsInt(ptr noundef nonnull %0) #8
  %11 = icmp eq i32 %10, -1
  br i1 %11, label %12, label %14

12:                                               ; preds = %9
  %13 = tail call ptr @PyErr_Occurred() #8
  %.not6 = icmp eq ptr %13, null
  br i1 %.not6, label %14, label %15

14:                                               ; preds = %12, %9
  store i32 %10, ptr %1, align 4, !tbaa !402
  br label %15

15:                                               ; preds = %12, %14, %6
  %.0 = phi i32 [ 0, %14 ], [ -1, %6 ], [ -1, %12 ]
  ret i32 %.0
}